#include <math.h>
#include <stdio.h>
#include <stdlib.h>
#include <string.h>
#include <iostream>
using namespace std;

/*???????a?????????????????a = a1 * a2 * a3 * ... * an???1 < a1 <= a2 <= a3 <= ... <= an?????????????????a = a???????
????
?1?????????n?????n???????????1?????????a (1 < a < 32768)
????
n???????????????????????????????????
????
2
2
20
????
1
4*/
int ct;
int count(int n, int p)
{
        int i;
        if(n==1) ct++;
        for(i=p;i<=n;i++)
        if(n%i==0) count(n/i,i);
}
int main()
{
        int n,m,i;
        cin>>m;
        for(i=1;i<=m;i++)
        {
                ct=0;
                cin>>n;
                count(n,2);
                cout<<ct<<endl;
        }
}
